target datalayout = "e-m:e-p270:32:32-p271:32:32-p272:64:64-i64:64-i128:128-f80:128-n8:16:32:64-S128"
target triple = "x86_64-pc-linux-gnu"

%struct.H5C_class_t = type { i32, ptr, i32, i32, ptr, ptr, ptr, ptr, ptr, ptr, ptr, ptr, ptr, ptr }
%struct.H5HG_heap_t = type { %struct.H5C_cache_entry_t, i64, i64, ptr, i64, i64, ptr, ptr }
%struct.H5C_cache_entry_t = type { ptr, i64, i64, ptr, i8, ptr, i8, i8, i8, i8, i32, i8, i8, i8, i8, i8, i32, ptr, i32, i32, i32, i32, i32, i8, i8, ptr, ptr, ptr, ptr, ptr, ptr, i8, i32, i8, i64, ptr, i64, i64, i32, i8, i32, i32, i8, ptr, ptr, ptr }

@H5HG_init_g = global i8 0, align 1
@H5_libterm_g = external global i8, align 1
@H5AC_GHEAP = external constant [1 x %struct.H5C_class_t], align 16
@.str.3 = private unnamed_addr constant [98 x i8] c"generated/home/dtcxzyw/WorkSpace/Projects/compilers/llvm-opt-benchmark/bench/hdf5/hdf5/src/H5HG.c\00", align 1
@__func__.H5HG__protect = private unnamed_addr constant [14 x i8] c"H5HG__protect\00", align 1
@H5E_HEAP_g = external global i64, align 8
@H5E_CANTPROTECT_g = external global i64, align 8
@.str.4 = private unnamed_addr constant [30 x i8] c"unable to protect global heap\00", align 1

; Function Attrs: nounwind uwtable
define ptr @H5HG__protect(ptr noundef %0, i64 noundef %1, i32 noundef %2) #0 {
  %4 = alloca ptr, align 8
  %5 = alloca i64, align 8
  %6 = alloca i32, align 4
  %7 = alloca ptr, align 8
  %8 = alloca ptr, align 8
  %9 = alloca i8, align 1
  store ptr %0, ptr %4, align 8, !tbaa !3
  store i64 %1, ptr %5, align 8, !tbaa !8
  store i32 %2, ptr %6, align 4, !tbaa !10
  call void @llvm.lifetime.start.p0(i64 8, ptr %7) #8
  call void @llvm.lifetime.start.p0(i64 8, ptr %8) #8
  store ptr null, ptr %8, align 8, !tbaa !12
  call void @llvm.lifetime.start.p0(i64 1, ptr %9) #8
  store i8 0, ptr %9, align 1, !tbaa !14
  %10 = load i8, ptr @H5HG_init_g, align 1, !tbaa !14, !range !16, !noundef !17
  %11 = trunc i8 %10 to i1
  br i1 %11, label %16, label %12

12:                                               ; preds = %3
  %13 = load i8, ptr @H5_libterm_g, align 1, !tbaa !14, !range !16, !noundef !17
  %14 = trunc i8 %13 to i1
  %15 = xor i1 %14, true
  br label %16

16:                                               ; preds = %12, %3
  %17 = phi i1 [ true, %3 ], [ %15, %12 ]
  %18 = xor i1 %17, true
  %19 = xor i1 %18, true
  %20 = zext i1 %19 to i32
  %21 = sext i32 %20 to i64
  %22 = call i64 @llvm.expect.i64(i64 %21, i64 1)
  %23 = icmp ne i64 %22, 0
  br i1 %23, label %24, label %56

24:                                               ; preds = %16
  %25 = load ptr, ptr %4, align 8, !tbaa !3
  %26 = load i64, ptr %5, align 8, !tbaa !8
  %27 = load ptr, ptr %4, align 8, !tbaa !3
  %28 = load i32, ptr %6, align 4, !tbaa !10
  %29 = call ptr @H5AC_protect(ptr noundef %25, ptr noundef @H5AC_GHEAP, i64 noundef %26, ptr noundef %27, i32 noundef %28)
  store ptr %29, ptr %7, align 8, !tbaa !12
  %30 = icmp eq ptr null, %29
  br i1 %30, label %31, label %50

31:                                               ; preds = %24
  br label %32

32:                                               ; preds = %31
  br label %33

33:                                               ; preds = %32
  br label %34

34:                                               ; preds = %33
  %35 = load i64, ptr @H5E_HEAP_g, align 8, !tbaa !8
  %36 = load i64, ptr @H5E_CANTPROTECT_g, align 8, !tbaa !8
  %37 = call i32 (ptr, ptr, i32, i64, i64, ptr, ...) @H5E_printf_stack(ptr noundef @.str.3, ptr noundef @__func__.H5HG__protect, i32 noundef 239, i64 noundef %35, i64 noundef %36, ptr noundef @.str.4)
  br label %38

38:                                               ; preds = %34
  br label %39

39:                                               ; preds = %38
  store i8 1, ptr %9, align 1, !tbaa !14
  %40 = load i8, ptr %9, align 1, !tbaa !14, !range !16, !noundef !17
  %41 = trunc i8 %40 to i1
  %42 = zext i1 %41 to i8
  store i8 %42, ptr %9, align 1, !tbaa !14
  br label %43

43:                                               ; preds = %39
  br label %44

44:                                               ; preds = %43
  br label %45

45:                                               ; preds = %44
  store ptr null, ptr %8, align 8, !tbaa !12
  br label %55

46:                                               ; No predecessors!
  br label %47

47:                                               ; preds = %46
  br label %48

48:                                               ; preds = %47
  br label %49

49:                                               ; preds = %48
  br label %50

50:                                               ; preds = %49, %24
  %51 = load i64, ptr %5, align 8, !tbaa !8
  %52 = load ptr, ptr %7, align 8, !tbaa !12
  %53 = getelementptr inbounds nuw %struct.H5HG_heap_t, ptr %52, i32 0, i32 1
  store i64 %51, ptr %53, align 8, !tbaa !18
  %54 = load ptr, ptr %7, align 8, !tbaa !12
  store ptr %54, ptr %8, align 8, !tbaa !12
  br label %55

55:                                               ; preds = %50, %45
  br label %56

56:                                               ; preds = %55, %16
  %57 = load ptr, ptr %8, align 8, !tbaa !12
  call void @llvm.lifetime.end.p0(i64 1, ptr %9) #8
  call void @llvm.lifetime.end.p0(i64 8, ptr %8) #8
  call void @llvm.lifetime.end.p0(i64 8, ptr %7) #8
  ret ptr %57
}