; Function Attrs: nounwind uwtable
define ptr @H5HG__protect(ptr noundef %0, i64 noundef %1, i32 noundef %2) local_unnamed_addr #0 {
  %4 = load i8, ptr @H5HG_init_g, align 1, !tbaa !3, !range !7, !noundef !8
  %5 = trunc nuw i8 %4 to i1
  %6 = load i8, ptr @H5_libterm_g, align 1, !range !7
  %7 = trunc nuw i8 %6 to i1
  %8 = xor i1 %7, true
  %9 = select i1 %5, i1 true, i1 %8
  br i1 %9, label %10, label %19, !prof !9

10:                                               ; preds = %3
  %11 = tail call ptr @H5AC_protect(ptr noundef %0, ptr noundef nonnull @H5AC_GHEAP, i64 noundef %1, ptr noundef %0, i32 noundef %2) #8
  %12 = icmp eq ptr %11, null
  br i1 %12, label %13, label %17

13:                                               ; preds = %10
  %14 = load i64, ptr @H5E_HEAP_g, align 8, !tbaa !10
  %15 = load i64, ptr @H5E_CANTPROTECT_g, align 8, !tbaa !10
  %16 = tail call i32 (ptr, ptr, i32, i64, i64, ptr, ...) @H5E_printf_stack(ptr noundef nonnull @.str.3, ptr noundef nonnull @__func__.H5HG__protect, i32 noundef 239, i64 noundef %14, i64 noundef %15, ptr noundef nonnull @.str.4) #8
  br label %19

17:                                               ; preds = %10
  %18 = getelementptr inbounds nuw i8, ptr %11, i64 248
  store i64 %1, ptr %18, align 8, !tbaa !12
  br label %19

19:                                               ; preds = %13, %17, %3
  %.0 = phi ptr [ null, %13 ], [ %11, %17 ], [ null, %3 ]
  ret ptr %.0
}